target datalayout = "e-m:e-p270:32:32-p271:32:32-p272:64:64-i64:64-i128:128-f80:128-n8:16:32:64-S128"
target triple = "x86_64-pc-linux-gnu"

%class.TableRateStatistics = type { i64, i64, i64, double, i64, i64, i64, i64 }

; Function Attrs: mustprogress nounwind uwtable
define hidden void @_ZN19TableRateStatistics5stampEv(ptr noundef nonnull align 8 dereferenceable(64) %0) #1 align 2 {
  %2 = alloca ptr, align 8
  %3 = alloca i64, align 8
  %4 = alloca i64, align 8
  store ptr %0, ptr %2, align 8
  %5 = load ptr, ptr %2, align 8
  %6 = call noundef i64 @_ZN2os13javaTimeNanosEv()
  store i64 %6, ptr %3, align 8
  %7 = getelementptr inbounds %class.TableRateStatistics, ptr %5, i32 0, i32 4
  %8 = load i64, ptr %7, align 8
  %9 = getelementptr inbounds %class.TableRateStatistics, ptr %5, i32 0, i32 5
  store i64 %8, ptr %9, align 8
  %10 = getelementptr inbounds %class.TableRateStatistics, ptr %5, i32 0, i32 6
  %11 = load i64, ptr %10, align 8
  %12 = getelementptr inbounds %class.TableRateStatistics, ptr %5, i32 0, i32 7
  store i64 %11, ptr %12, align 8
  %13 = getelementptr inbounds %class.TableRateStatistics, ptr %5, i32 0, i32 0
  %14 = load volatile i64, ptr %13, align 8
  %15 = getelementptr inbounds %class.TableRateStatistics, ptr %5, i32 0, i32 4
  store i64 %14, ptr %15, align 8
  %16 = getelementptr inbounds %class.TableRateStatistics, ptr %5, i32 0, i32 1
  %17 = load volatile i64, ptr %16, align 8
  %18 = getelementptr inbounds %class.TableRateStatistics, ptr %5, i32 0, i32 6
  store i64 %17, ptr %18, align 8
  %19 = getelementptr inbounds %class.TableRateStatistics, ptr %5, i32 0, i32 2
  %20 = load i64, ptr %19, align 8
  %21 = icmp eq i64 %20, 0
  br i1 %21, label %22, label %26

22:                                               ; preds = %1
  %23 = load i64, ptr %3, align 8
  %24 = sub nsw i64 %23, 1000000000
  %25 = getelementptr inbounds %class.TableRateStatistics, ptr %5, i32 0, i32 2
  store i64 %24, ptr %25, align 8
  br label %26

26:                                               ; preds = %22, %1
  %27 = load i64, ptr %3, align 8
  %28 = getelementptr inbounds %class.TableRateStatistics, ptr %5, i32 0, i32 2
  %29 = load i64, ptr %28, align 8
  %30 = sub nsw i64 %27, %29
  store i64 %30, ptr %4, align 8
  %31 = load i64, ptr %4, align 8
  %32 = sitofp i64 %31 to float
  %33 = fpext float %32 to double
  %34 = fdiv double %33, 1.000000e+09
  %35 = getelementptr inbounds %class.TableRateStatistics, ptr %5, i32 0, i32 3
  store double %34, ptr %35, align 8
  %36 = load i64, ptr %3, align 8
  %37 = getelementptr inbounds %class.TableRateStatistics, ptr %5, i32 0, i32 2
  store i64 %36, ptr %37, align 8
  ret void
}