; Function Attrs: mustprogress nounwind uwtable
define hidden void @_ZN19TableRateStatistics5stampEv(ptr noundef nonnull align 8 dereferenceable(64) %0) local_unnamed_addr #2 align 2 {
  %2 = tail call noundef i64 @_ZN2os13javaTimeNanosEv() #8
  %3 = getelementptr inbounds i8, ptr %0, i64 32
  %4 = load i64, ptr %3, align 8
  %5 = getelementptr inbounds i8, ptr %0, i64 40
  store i64 %4, ptr %5, align 8
  %6 = getelementptr inbounds i8, ptr %0, i64 48
  %7 = load i64, ptr %6, align 8
  %8 = getelementptr inbounds i8, ptr %0, i64 56
  store i64 %7, ptr %8, align 8
  %9 = load volatile i64, ptr %0, align 8
  store i64 %9, ptr %3, align 8
  %10 = getelementptr inbounds i8, ptr %0, i64 8
  %11 = load volatile i64, ptr %10, align 8
  store i64 %11, ptr %6, align 8
  %12 = getelementptr inbounds i8, ptr %0, i64 16
  %13 = load i64, ptr %12, align 8
  %14 = icmp eq i64 %13, 0
  %15 = add nsw i64 %2, -1000000000
  %spec.select = select i1 %14, i64 %15, i64 %13
  %16 = sub nsw i64 %2, %spec.select
  %17 = sitofp i64 %16 to float
  %18 = fpext float %17 to double
  %19 = fdiv double %18, 1.000000e+09
  %20 = getelementptr inbounds i8, ptr %0, i64 24
  store double %19, ptr %20, align 8
  store i64 %2, ptr %12, align 8
  ret void
}